target datalayout = "e-m:e-p270:32:32-p271:32:32-p272:64:64-i64:64-i128:128-f80:128-n8:16:32:64-S128"
target triple = "x86_64-pc-linux-gnu"

%struct.bufq = type { ptr, ptr, ptr, ptr, i64, i64, i64, i32 }
%struct.Curl_creader = type { ptr, ptr, ptr, i32 }
%struct.cr_eob_ctx = type { %struct.Curl_creader, %struct.bufq, i64, i64, i8 }

; Function Attrs: nounwind uwtable
define internal i32 @cr_eob_init(ptr noundef %0, ptr noundef %1) #0 {
  %3 = alloca ptr, align 8
  %4 = alloca ptr, align 8
  %5 = alloca ptr, align 8
  store ptr %0, ptr %3, align 8, !tbaa !3
  store ptr %1, ptr %4, align 8, !tbaa !162
  call void @llvm.lifetime.start.p0(i64 8, ptr %5) #7
  %6 = load ptr, ptr %4, align 8, !tbaa !162
  %7 = getelementptr inbounds nuw %struct.Curl_creader, ptr %6, i32 0, i32 2
  %8 = load ptr, ptr %7, align 8, !tbaa !163
  store ptr %8, ptr %5, align 8, !tbaa !166
  %9 = load ptr, ptr %5, align 8, !tbaa !166
  %10 = getelementptr inbounds nuw %struct.cr_eob_ctx, ptr %9, i32 0, i32 2
  store i64 2, ptr %10, align 8, !tbaa !168
  %11 = load ptr, ptr %5, align 8, !tbaa !166
  %12 = getelementptr inbounds nuw %struct.cr_eob_ctx, ptr %11, i32 0, i32 1
  call void @Curl_bufq_init2(ptr noundef %12, i64 noundef 16384, i64 noundef 1, i32 noundef 1)
  call void @llvm.lifetime.end.p0(i64 8, ptr %5) #7
  ret i32 0
}