; Function Attrs: nounwind uwtable
define internal noundef i32 @cr_eob_init(ptr readnone captures(none) %0, ptr noundef readonly captures(none) %1) #0 {
  %3 = getelementptr inbounds nuw i8, ptr %1, i64 16
  %4 = load ptr, ptr %3, align 8, !tbaa !143
  %5 = getelementptr inbounds nuw i8, ptr %4, i64 96
  store i64 2, ptr %5, align 8, !tbaa !146
  %6 = getelementptr inbounds nuw i8, ptr %4, i64 32
  tail call void @Curl_bufq_init2(ptr noundef nonnull %6, i64 noundef 16384, i64 noundef 1, i32 noundef 1) #9
  ret i32 0
}